target datalayout = "e-m:e-p270:32:32-p271:32:32-p272:64:64-i64:64-i128:128-f80:128-n8:16:32:64-S128"
target triple = "x86_64-pc-linux-gnu"

%struct.dt_pthread_mutex_t = type { %union.pthread_mutex_t }
%union.pthread_mutex_t = type { %struct.__pthread_mutex_s }
%struct.__pthread_mutex_s = type { i32, i32, i32, i32, i32, i16, i16, %struct.__pthread_internal_list }
%struct.__pthread_internal_list = type { ptr, ptr }
%struct.dt_cache_t = type { %struct.dt_pthread_mutex_t, i64, i64, i64, ptr, ptr, ptr, ptr, ptr, ptr }
%struct._GList = type { ptr, ptr, ptr }
%struct.dt_cache_entry_t = type { ptr, i64, i64, ptr, %union.pthread_rwlock_t, i32, i32 }
%union.pthread_rwlock_t = type { %struct.__pthread_rwlock_arch_t }
%struct.__pthread_rwlock_arch_t = type { i32, i32, i32, i32, i32, i32, i32, i32, i8, [7 x i8], i64, i32 }

; Function Attrs: inlinehint nounwind uwtable
define internal i32 @dt_pthread_rwlock_destroy(ptr noundef %0) #1 {
  %2 = alloca ptr, align 8
  %3 = alloca i32, align 4
  store ptr %0, ptr %2, align 8, !tbaa !28
  call void @llvm.lifetime.start.p0(i64 4, ptr %3) #6
  %4 = load ptr, ptr %2, align 8, !tbaa !28
  %5 = call i32 @pthread_rwlock_destroy(ptr noundef %4) #6
  store i32 %5, ptr %3, align 4, !tbaa !38
  %6 = load i32, ptr %3, align 4, !tbaa !38
  call void @llvm.lifetime.end.p0(i64 4, ptr %3) #6
  ret i32 %6
}

; Function Attrs: inlinehint nounwind uwtable
define internal i32 @dt_pthread_rwlock_unlock(ptr noundef %0) #1 {
  %2 = alloca ptr, align 8
  %3 = alloca i32, align 4
  store ptr %0, ptr %2, align 8, !tbaa !28
  call void @llvm.lifetime.start.p0(i64 4, ptr %3) #6
  %4 = load ptr, ptr %2, align 8, !tbaa !28
  %5 = call i32 @pthread_rwlock_unlock(ptr noundef %4) #6
  store i32 %5, ptr %3, align 4, !tbaa !38
  %6 = load i32, ptr %3, align 4, !tbaa !38
  call void @llvm.lifetime.end.p0(i64 4, ptr %3) #6
  ret i32 %6
}

; Function Attrs: inlinehint nounwind uwtable
define internal i32 @dt_pthread_rwlock_trywrlock(ptr noundef %0) #1 {
  %2 = alloca ptr, align 8
  %3 = alloca i32, align 4
  store ptr %0, ptr %2, align 8, !tbaa !28
  call void @llvm.lifetime.start.p0(i64 4, ptr %3) #6
  %4 = load ptr, ptr %2, align 8, !tbaa !28
  %5 = call i32 @pthread_rwlock_trywrlock(ptr noundef %4) #6
  store i32 %5, ptr %3, align 4, !tbaa !38
  %6 = load i32, ptr %3, align 4, !tbaa !38
  call void @llvm.lifetime.end.p0(i64 4, ptr %3) #6
  ret i32 %6
}

; Function Attrs: nounwind uwtable
define void @dt_cache_gc(ptr noundef %0, float noundef %1) #0 {
  %3 = alloca ptr, align 8
  %4 = alloca float, align 4
  %5 = alloca ptr, align 8
  %6 = alloca ptr, align 8
  %7 = alloca i32, align 4
  store ptr %0, ptr %3, align 8, !tbaa !6
  store float %1, ptr %4, align 4, !tbaa !82
  call void @llvm.lifetime.start.p0(i64 8, ptr %5) #6
  %8 = load ptr, ptr %3, align 8, !tbaa !6
  %9 = getelementptr inbounds nuw %struct.dt_cache_t, ptr %8, i32 0, i32 5
  %10 = load ptr, ptr %9, align 8, !tbaa !18
  store ptr %10, ptr %5, align 8, !tbaa !29
  br label %11

11:                                               ; preds = %106, %104, %2
  %12 = load ptr, ptr %5, align 8, !tbaa !29
  %13 = icmp ne ptr %12, null
  br i1 %13, label %14, label %107

14:                                               ; preds = %11
  call void @llvm.lifetime.start.p0(i64 8, ptr %6) #6
  %15 = load ptr, ptr %5, align 8, !tbaa !29
  %16 = getelementptr inbounds nuw %struct._GList, ptr %15, i32 0, i32 0
  %17 = load ptr, ptr %16, align 8, !tbaa !30
  store ptr %17, ptr %6, align 8, !tbaa !32
  %18 = load ptr, ptr %5, align 8, !tbaa !29
  %19 = icmp ne ptr %18, null
  br i1 %19, label %20, label %24

20:                                               ; preds = %14
  %21 = load ptr, ptr %5, align 8, !tbaa !29
  %22 = getelementptr inbounds nuw %struct._GList, ptr %21, i32 0, i32 1
  %23 = load ptr, ptr %22, align 8, !tbaa !37
  br label %25

24:                                               ; preds = %14
  br label %25

25:                                               ; preds = %24, %20
  %26 = phi ptr [ %23, %20 ], [ null, %24 ]
  store ptr %26, ptr %5, align 8, !tbaa !29
  %27 = load ptr, ptr %3, align 8, !tbaa !6
  %28 = getelementptr inbounds nuw %struct.dt_cache_t, ptr %27, i32 0, i32 2
  %29 = load i64, ptr %28, align 8, !tbaa !13
  %30 = uitofp i64 %29 to float
  %31 = load ptr, ptr %3, align 8, !tbaa !6
  %32 = getelementptr inbounds nuw %struct.dt_cache_t, ptr %31, i32 0, i32 3
  %33 = load i64, ptr %32, align 8, !tbaa !20
  %34 = uitofp i64 %33 to float
  %35 = load float, ptr %4, align 4, !tbaa !82
  %36 = fmul reassoc nsz arcp contract afn float %34, %35
  %37 = fcmp reassoc nsz arcp contract afn olt float %30, %36
  br i1 %37, label %38, label %39

38:                                               ; preds = %25
  store i32 3, ptr %7, align 4
  br label %104

39:                                               ; preds = %25
  %40 = load ptr, ptr %6, align 8, !tbaa !32
  %41 = getelementptr inbounds nuw %struct.dt_cache_entry_t, ptr %40, i32 0, i32 4
  %42 = call i32 @dt_pthread_rwlock_trywrlock(ptr noundef %41)
  %43 = icmp ne i32 %42, 0
  br i1 %43, label %44, label %45

44:                                               ; preds = %39
  store i32 2, ptr %7, align 4
  br label %104

45:                                               ; preds = %39
  %46 = load ptr, ptr %6, align 8, !tbaa !32
  %47 = getelementptr inbounds nuw %struct.dt_cache_entry_t, ptr %46, i32 0, i32 5
  %48 = load i32, ptr %47, align 8, !tbaa !81
  %49 = icmp ne i32 %48, 0
  br i1 %49, label %50, label %54

50:                                               ; preds = %45
  %51 = load ptr, ptr %6, align 8, !tbaa !32
  %52 = getelementptr inbounds nuw %struct.dt_cache_entry_t, ptr %51, i32 0, i32 4
  %53 = call i32 @dt_pthread_rwlock_unlock(ptr noundef %52)
  store i32 2, ptr %7, align 4
  br label %104

54:                                               ; preds = %45
  %55 = load ptr, ptr %3, align 8, !tbaa !6
  %56 = getelementptr inbounds nuw %struct.dt_cache_t, ptr %55, i32 0, i32 4
  %57 = load ptr, ptr %56, align 8, !tbaa !25
  %58 = load ptr, ptr %6, align 8, !tbaa !32
  %59 = getelementptr inbounds nuw %struct.dt_cache_entry_t, ptr %58, i32 0, i32 6
  %60 = load i32, ptr %59, align 4, !tbaa !80
  %61 = zext i32 %60 to i64
  %62 = inttoptr i64 %61 to ptr
  %63 = call i32 @g_hash_table_remove(ptr noundef %57, ptr noundef %62)
  %64 = load ptr, ptr %3, align 8, !tbaa !6
  %65 = getelementptr inbounds nuw %struct.dt_cache_t, ptr %64, i32 0, i32 5
  %66 = load ptr, ptr %65, align 8, !tbaa !18
  %67 = load ptr, ptr %6, align 8, !tbaa !32
  %68 = getelementptr inbounds nuw %struct.dt_cache_entry_t, ptr %67, i32 0, i32 3
  %69 = load ptr, ptr %68, align 8, !tbaa !42
  %70 = call ptr @g_list_delete_link(ptr noundef %66, ptr noundef %69)
  %71 = load ptr, ptr %3, align 8, !tbaa !6
  %72 = getelementptr inbounds nuw %struct.dt_cache_t, ptr %71, i32 0, i32 5
  store ptr %70, ptr %72, align 8, !tbaa !18
  %73 = load ptr, ptr %6, align 8, !tbaa !32
  %74 = getelementptr inbounds nuw %struct.dt_cache_entry_t, ptr %73, i32 0, i32 2
  %75 = load i64, ptr %74, align 8, !tbaa !79
  %76 = load ptr, ptr %3, align 8, !tbaa !6
  %77 = getelementptr inbounds nuw %struct.dt_cache_t, ptr %76, i32 0, i32 2
  %78 = load i64, ptr %77, align 8, !tbaa !13
  %79 = sub i64 %78, %75
  store i64 %79, ptr %77, align 8, !tbaa !13
  %80 = load ptr, ptr %3, align 8, !tbaa !6
  %81 = getelementptr inbounds nuw %struct.dt_cache_t, ptr %80, i32 0, i32 7
  %82 = load ptr, ptr %81, align 8, !tbaa !23
  %83 = icmp ne ptr %82, null
  br i1 %83, label %84, label %92

84:                                               ; preds = %54
  %85 = load ptr, ptr %3, align 8, !tbaa !6
  %86 = getelementptr inbounds nuw %struct.dt_cache_t, ptr %85, i32 0, i32 7
  %87 = load ptr, ptr %86, align 8, !tbaa !23
  %88 = load ptr, ptr %3, align 8, !tbaa !6
  %89 = getelementptr inbounds nuw %struct.dt_cache_t, ptr %88, i32 0, i32 9
  %90 = load ptr, ptr %89, align 8, !tbaa !24
  %91 = load ptr, ptr %6, align 8, !tbaa !32
  call void %87(ptr noundef %90, ptr noundef %91)
  br label %96

92:                                               ; preds = %54
  %93 = load ptr, ptr %6, align 8, !tbaa !32
  %94 = getelementptr inbounds nuw %struct.dt_cache_entry_t, ptr %93, i32 0, i32 0
  %95 = load ptr, ptr %94, align 8, !tbaa !34
  call void @free(ptr noundef %95) #6
  br label %96

96:                                               ; preds = %92, %84
  %97 = load ptr, ptr %6, align 8, !tbaa !32
  %98 = getelementptr inbounds nuw %struct.dt_cache_entry_t, ptr %97, i32 0, i32 4
  %99 = call i32 @dt_pthread_rwlock_unlock(ptr noundef %98)
  %100 = load ptr, ptr %6, align 8, !tbaa !32
  %101 = getelementptr inbounds nuw %struct.dt_cache_entry_t, ptr %100, i32 0, i32 4
  %102 = call i32 @dt_pthread_rwlock_destroy(ptr noundef %101)
  %103 = load ptr, ptr %6, align 8, !tbaa !32
  call void @g_slice_free1(i64 noundef 96, ptr noundef %103)
  store i32 0, ptr %7, align 4
  br label %104

104:                                              ; preds = %96, %50, %44, %38
  call void @llvm.lifetime.end.p0(i64 8, ptr %6) #6
  %105 = load i32, ptr %7, align 4
  switch i32 %105, label %108 [
    i32 0, label %106
    i32 3, label %107
    i32 2, label %11
  ]

106:                                              ; preds = %104
  br label %11

107:                                              ; preds = %104, %11
  call void @llvm.lifetime.end.p0(i64 8, ptr %5) #6
  ret void

108:                                              ; preds = %104
  unreachable
}