; Function Attrs: nounwind uwtable
define void @dt_cache_gc(ptr noundef captures(none) %0, float noundef %1) local_unnamed_addr #0 {
  %3 = getelementptr inbounds nuw i8, ptr %0, i64 72
  %4 = load ptr, ptr %3, align 8, !tbaa !15
  %.not34 = icmp eq ptr %4, null
  br i1 %.not34, label %.thread, label %.lr.ph

.lr.ph:                                           ; preds = %2
  %5 = getelementptr inbounds nuw i8, ptr %0, i64 48
  %6 = getelementptr inbounds nuw i8, ptr %0, i64 56
  %7 = getelementptr inbounds nuw i8, ptr %0, i64 64
  %8 = getelementptr inbounds nuw i8, ptr %0, i64 88
  %9 = getelementptr inbounds nuw i8, ptr %0, i64 104
  br label %10

10:                                               ; preds = %.lr.ph, %51
  %.02635 = phi ptr [ %4, %.lr.ph ], [ %13, %51 ]
  %11 = load ptr, ptr %.02635, align 8, !tbaa !20
  %12 = getelementptr inbounds nuw i8, ptr %.02635, i64 8
  %13 = load ptr, ptr %12, align 8, !tbaa !73
  %14 = load i64, ptr %5, align 8, !tbaa !6
  %15 = uitofp i64 %14 to float
  %16 = load i64, ptr %6, align 8, !tbaa !17
  %17 = uitofp i64 %16 to float
  %18 = fmul reassoc nsz arcp contract afn float %1, %17
  %19 = fcmp reassoc nsz arcp contract afn ogt float %18, %15
  br i1 %19, label %.thread, label %20

20:                                               ; preds = %10
  %21 = getelementptr inbounds nuw i8, ptr %11, i64 32
  %22 = tail call i32 @pthread_rwlock_trywrlock(ptr noundef nonnull %21) #8
  %.not28 = icmp eq i32 %22, 0
  br i1 %.not28, label %23, label %51

23:                                               ; preds = %20
  %24 = getelementptr inbounds nuw i8, ptr %11, i64 88
  %25 = load i32, ptr %24, align 8, !tbaa !70
  %.not29 = icmp eq i32 %25, 0
  br i1 %.not29, label %28, label %26

26:                                               ; preds = %23
  %27 = tail call i32 @pthread_rwlock_unlock(ptr noundef nonnull %21) #8
  br label %51

28:                                               ; preds = %23
  %29 = load ptr, ptr %7, align 8, !tbaa !18
  %30 = getelementptr inbounds nuw i8, ptr %11, i64 92
  %31 = load i32, ptr %30, align 4, !tbaa !69
  %32 = zext i32 %31 to i64
  %33 = inttoptr i64 %32 to ptr
  %34 = tail call i32 @g_hash_table_remove(ptr noundef %29, ptr noundef %33) #8
  %35 = load ptr, ptr %3, align 8, !tbaa !15
  %36 = getelementptr inbounds nuw i8, ptr %11, i64 24
  %37 = load ptr, ptr %36, align 8, !tbaa !66
  %38 = tail call ptr @g_list_delete_link(ptr noundef %35, ptr noundef %37) #8
  store ptr %38, ptr %3, align 8, !tbaa !15
  %39 = getelementptr inbounds nuw i8, ptr %11, i64 16
  %40 = load i64, ptr %39, align 8, !tbaa !68
  %41 = load i64, ptr %5, align 8, !tbaa !6
  %42 = sub i64 %41, %40
  store i64 %42, ptr %5, align 8, !tbaa !6
  %43 = load ptr, ptr %8, align 8, !tbaa !22
  %.not30 = icmp eq ptr %43, null
  br i1 %.not30, label %46, label %44

44:                                               ; preds = %28
  %45 = load ptr, ptr %9, align 8, !tbaa !23
  tail call void %43(ptr noundef %45, ptr noundef nonnull %11) #8
  br label %48

46:                                               ; preds = %28
  %47 = load ptr, ptr %11, align 8, !tbaa !24
  tail call void @free(ptr noundef %47) #8
  br label %48

48:                                               ; preds = %46, %44
  %49 = tail call i32 @pthread_rwlock_unlock(ptr noundef nonnull %21) #8
  %50 = tail call i32 @pthread_rwlock_destroy(ptr noundef nonnull %21) #8
  tail call void @g_slice_free1(i64 noundef 96, ptr noundef nonnull %11) #8
  br label %51

51:                                               ; preds = %20, %48, %26
  %.not = icmp eq ptr %13, null
  br i1 %.not, label %.thread, label %10

.thread:                                          ; preds = %51, %10, %2
  ret void
}